target datalayout = "e-m:e-p270:32:32-p271:32:32-p272:64:64-i64:64-i128:128-f80:128-n8:16:32:64-S128"
target triple = "x86_64-pc-linux-gnu"

%struct.hb_object_header_t = type { %struct.hb_reference_count_t, %struct.hb_atomic_int_t, %struct.hb_atomic_ptr_t }
%struct.hb_reference_count_t = type { %struct.hb_atomic_int_t }
%struct.hb_atomic_int_t = type { i32 }
%struct.hb_atomic_ptr_t = type { ptr }
%struct.hb_segment_properties_t = type { i32, i32, ptr, ptr, ptr }
%struct.hb_buffer_t = type <{ %struct.hb_object_header_t, ptr, i32, i32, i32, i32, i32, i32, %struct.hb_segment_properties_t, i8, i8, i8, i8, i32, i32, i32, i32, [4 x i8], ptr, ptr, ptr, [2 x [5 x i32]], [2 x i32], i8, i8, [2 x i8], i32, i32, i32, ptr, ptr, ptr, i32, [4 x i8] }>
%struct.hb_glyph_info_t = type { i32, i32, i32, %union._hb_var_int_t, %union._hb_var_int_t }
%union._hb_var_int_t = type { i32 }

; Function Attrs: mustprogress nounwind uwtable
define internal noundef ptr @_ZL9hb_memsetPvij(ptr noundef %0, i32 noundef %1, i32 noundef %2) #0 {
  %4 = alloca ptr, align 8
  %5 = alloca ptr, align 8
  %6 = alloca i32, align 4
  %7 = alloca i32, align 4
  store ptr %0, ptr %5, align 8
  store i32 %1, ptr %6, align 4
  store i32 %2, ptr %7, align 4
  %8 = load i32, ptr %7, align 4
  %9 = icmp ne i32 %8, 0
  br i1 %9, label %12, label %10

10:                                               ; preds = %3
  %11 = load ptr, ptr %5, align 8
  store ptr %11, ptr %4, align 8
  br label %18

12:                                               ; preds = %3
  %13 = load ptr, ptr %5, align 8
  %14 = load i32, ptr %6, align 4
  %15 = trunc i32 %14 to i8
  %16 = load i32, ptr %7, align 4
  %17 = zext i32 %16 to i64
  call void @llvm.memset.p0.i64(ptr align 1 %13, i8 %15, i64 %17, i1 false)
  store ptr %13, ptr %4, align 8
  br label %18

18:                                               ; preds = %12, %10
  %19 = load ptr, ptr %4, align 8
  ret ptr %19
}

; Function Attrs: mustprogress uwtable
define linkonce_odr hidden noundef zeroext i1 @_ZN11hb_buffer_t6ensureEj(ptr noundef nonnull align 8 dereferenceable(220) %0, i32 noundef %1) #1 comdat align 2 {
  %3 = alloca ptr, align 8
  %4 = alloca i32, align 4
  store ptr %0, ptr %3, align 8
  store i32 %1, ptr %4, align 4
  %5 = load ptr, ptr %3, align 8
  %6 = load i32, ptr %4, align 4
  %7 = icmp ne i32 %6, 0
  br i1 %7, label %8, label %13

8:                                                ; preds = %2
  %9 = load i32, ptr %4, align 4
  %10 = getelementptr inbounds %struct.hb_buffer_t, ptr %5, i32 0, i32 16
  %11 = load i32, ptr %10, align 8
  %12 = icmp ult i32 %9, %11
  br i1 %12, label %13, label %14

13:                                               ; preds = %8, %2
  br label %17

14:                                               ; preds = %8
  %15 = load i32, ptr %4, align 4
  %16 = call noundef zeroext i1 @_ZN11hb_buffer_t7enlargeEj(ptr noundef nonnull align 8 dereferenceable(220) %5, i32 noundef %15)
  br label %17

17:                                               ; preds = %14, %13
  %18 = phi i1 [ true, %13 ], [ %16, %14 ]
  ret i1 %18
}

; Function Attrs: mustprogress nounwind uwtable
define linkonce_odr hidden void @_ZN11hb_buffer_t13clear_contextEj(ptr noundef nonnull align 8 dereferenceable(220) %0, i32 noundef %1) #0 comdat align 2 {
  %3 = alloca ptr, align 8
  %4 = alloca i32, align 4
  store ptr %0, ptr %3, align 8
  store i32 %1, ptr %4, align 4
  %5 = load ptr, ptr %3, align 8
  %6 = getelementptr inbounds %struct.hb_buffer_t, ptr %5, i32 0, i32 22
  %7 = load i32, ptr %4, align 4
  %8 = zext i32 %7 to i64
  %9 = getelementptr inbounds [2 x i32], ptr %6, i64 0, i64 %8
  store i32 0, ptr %9, align 4
  ret void
}

; Function Attrs: mustprogress uwtable
define hidden void @_ZN11hb_buffer_t3addEjj(ptr noundef nonnull align 8 dereferenceable(220) %0, i32 noundef %1, i32 noundef %2) #1 align 2 {
  %4 = alloca ptr, align 8
  %5 = alloca i32, align 4
  %6 = alloca i32, align 4
  %7 = alloca ptr, align 8
  store ptr %0, ptr %4, align 8
  store i32 %1, ptr %5, align 4
  store i32 %2, ptr %6, align 4
  %8 = load ptr, ptr %4, align 8
  %9 = getelementptr inbounds %struct.hb_buffer_t, ptr %8, i32 0, i32 14
  %10 = load i32, ptr %9, align 8
  %11 = add i32 %10, 1
  %12 = call noundef zeroext i1 @_ZN11hb_buffer_t6ensureEj(ptr noundef nonnull align 8 dereferenceable(220) %8, i32 noundef %11)
  br i1 %12, label %14, label %13

13:                                               ; preds = %3
  br label %34

14:                                               ; preds = %3
  %15 = getelementptr inbounds %struct.hb_buffer_t, ptr %8, i32 0, i32 18
  %16 = load ptr, ptr %15, align 8
  %17 = getelementptr inbounds %struct.hb_buffer_t, ptr %8, i32 0, i32 14
  %18 = load i32, ptr %17, align 8
  %19 = zext i32 %18 to i64
  %20 = getelementptr inbounds %struct.hb_glyph_info_t, ptr %16, i64 %19
  store ptr %20, ptr %7, align 8
  %21 = load ptr, ptr %7, align 8
  %22 = call noundef ptr @_ZL9hb_memsetPvij(ptr noundef %21, i32 noundef 0, i32 noundef 20)
  %23 = load i32, ptr %5, align 4
  %24 = load ptr, ptr %7, align 8
  %25 = getelementptr inbounds %struct.hb_glyph_info_t, ptr %24, i32 0, i32 0
  store i32 %23, ptr %25, align 4
  %26 = load ptr, ptr %7, align 8
  %27 = getelementptr inbounds %struct.hb_glyph_info_t, ptr %26, i32 0, i32 1
  store i32 0, ptr %27, align 4
  %28 = load i32, ptr %6, align 4
  %29 = load ptr, ptr %7, align 8
  %30 = getelementptr inbounds %struct.hb_glyph_info_t, ptr %29, i32 0, i32 2
  store i32 %28, ptr %30, align 4
  %31 = getelementptr inbounds %struct.hb_buffer_t, ptr %8, i32 0, i32 14
  %32 = load i32, ptr %31, align 8
  %33 = add i32 %32, 1
  store i32 %33, ptr %31, align 8
  br label %34

34:                                               ; preds = %14, %13
  ret void
}

; Function Attrs: mustprogress uwtable
define hidden void @hb_buffer_add(ptr noundef %0, i32 noundef %1, i32 noundef %2) #1 {
  %4 = alloca ptr, align 8
  %5 = alloca i32, align 4
  %6 = alloca i32, align 4
  store ptr %0, ptr %4, align 8
  store i32 %1, ptr %5, align 4
  store i32 %2, ptr %6, align 4
  %7 = load ptr, ptr %4, align 8
  %8 = load i32, ptr %5, align 4
  %9 = load i32, ptr %6, align 4
  call void @_ZN11hb_buffer_t3addEjj(ptr noundef nonnull align 8 dereferenceable(220) %7, i32 noundef %8, i32 noundef %9)
  %10 = load ptr, ptr %4, align 8
  call void @_ZN11hb_buffer_t13clear_contextEj(ptr noundef nonnull align 8 dereferenceable(220) %10, i32 noundef 1)
  ret void
}