; Function Attrs: mustprogress nounwind uwtable
define hidden void @hb_buffer_add(ptr nocapture noundef %0, i32 noundef %1, i32 noundef %2) local_unnamed_addr #2 {
  %4 = getelementptr inbounds i8, ptr %0, i64 88
  %5 = load i32, ptr %4, align 8
  %6 = add i32 %5, 1
  %.not.i.i = icmp eq i32 %6, 0
  %7 = getelementptr inbounds i8, ptr %0, i64 96
  %8 = load i32, ptr %7, align 8
  %9 = icmp ugt i32 %8, %6
  %or.cond.i.i = select i1 %.not.i.i, i1 true, i1 %9
  br i1 %or.cond.i.i, label %_ZN11hb_buffer_t6ensureEj.exit.thread.i, label %_ZN11hb_buffer_t6ensureEj.exit.i

_ZN11hb_buffer_t6ensureEj.exit.i:                 ; preds = %3
  %10 = tail call noundef zeroext i1 @_ZN11hb_buffer_t7enlargeEj(ptr noundef nonnull align 8 dereferenceable(220) %0, i32 noundef %6)
  br i1 %10, label %_ZN11hb_buffer_t6ensureEj.exit._ZN11hb_buffer_t6ensureEj.exit.thread_crit_edge.i, label %_ZN11hb_buffer_t3addEjj.exit

_ZN11hb_buffer_t6ensureEj.exit._ZN11hb_buffer_t6ensureEj.exit.thread_crit_edge.i: ; preds = %_ZN11hb_buffer_t6ensureEj.exit.i
  %.pre.i = load i32, ptr %4, align 8
  br label %_ZN11hb_buffer_t6ensureEj.exit.thread.i

_ZN11hb_buffer_t6ensureEj.exit.thread.i:          ; preds = %_ZN11hb_buffer_t6ensureEj.exit._ZN11hb_buffer_t6ensureEj.exit.thread_crit_edge.i, %3
  %11 = phi i32 [ %.pre.i, %_ZN11hb_buffer_t6ensureEj.exit._ZN11hb_buffer_t6ensureEj.exit.thread_crit_edge.i ], [ %5, %3 ]
  %12 = getelementptr inbounds i8, ptr %0, i64 104
  %13 = load ptr, ptr %12, align 8
  %14 = zext i32 %11 to i64
  %15 = getelementptr inbounds %struct.hb_glyph_info_t, ptr %13, i64 %14
  %16 = getelementptr inbounds i8, ptr %15, i64 12
  store i64 0, ptr %16, align 1
  store i32 %1, ptr %15, align 4
  %17 = getelementptr inbounds i8, ptr %15, i64 4
  store i32 0, ptr %17, align 4
  %18 = getelementptr inbounds i8, ptr %15, i64 8
  store i32 %2, ptr %18, align 4
  %19 = load i32, ptr %4, align 8
  %20 = add i32 %19, 1
  store i32 %20, ptr %4, align 8
  br label %_ZN11hb_buffer_t3addEjj.exit

_ZN11hb_buffer_t3addEjj.exit:                     ; preds = %_ZN11hb_buffer_t6ensureEj.exit.i, %_ZN11hb_buffer_t6ensureEj.exit.thread.i
  %21 = getelementptr inbounds i8, ptr %0, i64 172
  store i32 0, ptr %21, align 4
  ret void
}